target datalayout = "e-m:e-p270:32:32-p271:32:32-p272:64:64-i64:64-i128:128-f80:128-n8:16:32:64-S128"
target triple = "x86_64-pc-linux-gnu"

; Function Attrs: mustprogress nounwind uwtable
define internal noundef double @_ZN2cvL9normL2SqrIddEET0_PKT_S4_i(ptr noundef %0, ptr noundef %1, i32 noundef %2) #1 {
  %4 = alloca ptr, align 8
  %5 = alloca ptr, align 8
  %6 = alloca i32, align 4
  %7 = alloca double, align 8
  %8 = alloca i32, align 4
  %9 = alloca double, align 8
  store ptr %0, ptr %4, align 8
  store ptr %1, ptr %5, align 8
  store i32 %2, ptr %6, align 4
  store double 0.000000e+00, ptr %7, align 8
  store i32 0, ptr %8, align 4
  br label %10

10:                                               ; preds = %30, %3
  %11 = load i32, ptr %8, align 4
  %12 = load i32, ptr %6, align 4
  %13 = icmp slt i32 %11, %12
  br i1 %13, label %14, label %33

14:                                               ; preds = %10
  %15 = load ptr, ptr %4, align 8
  %16 = load i32, ptr %8, align 4
  %17 = sext i32 %16 to i64
  %18 = getelementptr inbounds double, ptr %15, i64 %17
  %19 = load double, ptr %18, align 8
  %20 = load ptr, ptr %5, align 8
  %21 = load i32, ptr %8, align 4
  %22 = sext i32 %21 to i64
  %23 = getelementptr inbounds double, ptr %20, i64 %22
  %24 = load double, ptr %23, align 8
  %25 = fsub double %19, %24
  store double %25, ptr %9, align 8
  %26 = load double, ptr %9, align 8
  %27 = load double, ptr %9, align 8
  %28 = load double, ptr %7, align 8
  %29 = call double @llvm.fmuladd.f64(double %26, double %27, double %28)
  store double %29, ptr %7, align 8
  br label %30

30:                                               ; preds = %14
  %31 = load i32, ptr %8, align 4
  %32 = add nsw i32 %31, 1
  store i32 %32, ptr %8, align 4
  br label %10, !llvm.loop !147

33:                                               ; preds = %10
  %34 = load double, ptr %7, align 8
  ret double %34
}

; Function Attrs: mustprogress uwtable
define linkonce_odr hidden noundef i32 @_ZN2cv11normDiffL2_IddEEiPKT_S3_PKhPT0_ii(ptr noundef %0, ptr noundef %1, ptr noundef %2, ptr noundef %3, i32 noundef %4, i32 noundef %5) #0 comdat {
  %7 = alloca ptr, align 8
  %8 = alloca ptr, align 8
  %9 = alloca ptr, align 8
  %10 = alloca ptr, align 8
  %11 = alloca i32, align 4
  %12 = alloca i32, align 4
  %13 = alloca double, align 8
  %14 = alloca i32, align 4
  %15 = alloca i32, align 4
  %16 = alloca double, align 8
  store ptr %0, ptr %7, align 8
  store ptr %1, ptr %8, align 8
  store ptr %2, ptr %9, align 8
  store ptr %3, ptr %10, align 8
  store i32 %4, ptr %11, align 4
  store i32 %5, ptr %12, align 4
  %17 = load ptr, ptr %10, align 8
  %18 = load double, ptr %17, align 8
  store double %18, ptr %13, align 8
  %19 = load ptr, ptr %9, align 8
  %20 = icmp ne ptr %19, null
  br i1 %20, label %30, label %21

21:                                               ; preds = %6
  %22 = load ptr, ptr %7, align 8
  %23 = load ptr, ptr %8, align 8
  %24 = load i32, ptr %11, align 4
  %25 = load i32, ptr %12, align 4
  %26 = mul nsw i32 %24, %25
  %27 = call noundef double @_ZN2cvL9normL2SqrIddEET0_PKT_S4_i(ptr noundef %22, ptr noundef %23, i32 noundef %26)
  %28 = load double, ptr %13, align 8
  %29 = fadd double %28, %27
  store double %29, ptr %13, align 8
  br label %80

30:                                               ; preds = %6
  store i32 0, ptr %14, align 4
  br label %31

31:                                               ; preds = %68, %30
  %32 = load i32, ptr %14, align 4
  %33 = load i32, ptr %11, align 4
  %34 = icmp slt i32 %32, %33
  br i1 %34, label %35, label %79

35:                                               ; preds = %31
  %36 = load ptr, ptr %9, align 8
  %37 = load i32, ptr %14, align 4
  %38 = sext i32 %37 to i64
  %39 = getelementptr inbounds i8, ptr %36, i64 %38
  %40 = load i8, ptr %39, align 1
  %41 = icmp ne i8 %40, 0
  br i1 %41, label %42, label %67

42:                                               ; preds = %35
  store i32 0, ptr %15, align 4
  br label %43

43:                                               ; preds = %63, %42
  %44 = load i32, ptr %15, align 4
  %45 = load i32, ptr %12, align 4
  %46 = icmp slt i32 %44, %45
  br i1 %46, label %47, label %66

47:                                               ; preds = %43
  %48 = load ptr, ptr %7, align 8
  %49 = load i32, ptr %15, align 4
  %50 = sext i32 %49 to i64
  %51 = getelementptr inbounds double, ptr %48, i64 %50
  %52 = load double, ptr %51, align 8
  %53 = load ptr, ptr %8, align 8
  %54 = load i32, ptr %15, align 4
  %55 = sext i32 %54 to i64
  %56 = getelementptr inbounds double, ptr %53, i64 %55
  %57 = load double, ptr %56, align 8
  %58 = fsub double %52, %57
  store double %58, ptr %16, align 8
  %59 = load double, ptr %16, align 8
  %60 = load double, ptr %16, align 8
  %61 = load double, ptr %13, align 8
  %62 = call double @llvm.fmuladd.f64(double %59, double %60, double %61)
  store double %62, ptr %13, align 8
  br label %63

63:                                               ; preds = %47
  %64 = load i32, ptr %15, align 4
  %65 = add nsw i32 %64, 1
  store i32 %65, ptr %15, align 4
  br label %43, !llvm.loop !145

66:                                               ; preds = %43
  br label %67

67:                                               ; preds = %66, %35
  br label %68

68:                                               ; preds = %67
  %69 = load i32, ptr %14, align 4
  %70 = add nsw i32 %69, 1
  store i32 %70, ptr %14, align 4
  %71 = load i32, ptr %12, align 4
  %72 = load ptr, ptr %7, align 8
  %73 = sext i32 %71 to i64
  %74 = getelementptr inbounds double, ptr %72, i64 %73
  store ptr %74, ptr %7, align 8
  %75 = load i32, ptr %12, align 4
  %76 = load ptr, ptr %8, align 8
  %77 = sext i32 %75 to i64
  %78 = getelementptr inbounds double, ptr %76, i64 %77
  store ptr %78, ptr %8, align 8
  br label %31, !llvm.loop !146

79:                                               ; preds = %31
  br label %80

80:                                               ; preds = %79, %21
  %81 = load double, ptr %13, align 8
  %82 = load ptr, ptr %10, align 8
  store double %81, ptr %82, align 8
  ret i32 0
}

; Function Attrs: mustprogress uwtable
define internal noundef i32 @_ZN2cvL14normDiffL2_64fEPKdS1_PKhPdii(ptr noundef %0, ptr noundef %1, ptr noundef %2, ptr noundef %3, i32 noundef %4, i32 noundef %5) #0 {
  %7 = alloca ptr, align 8
  %8 = alloca ptr, align 8
  %9 = alloca ptr, align 8
  %10 = alloca ptr, align 8
  %11 = alloca i32, align 4
  %12 = alloca i32, align 4
  store ptr %0, ptr %7, align 8
  store ptr %1, ptr %8, align 8
  store ptr %2, ptr %9, align 8
  store ptr %3, ptr %10, align 8
  store i32 %4, ptr %11, align 4
  store i32 %5, ptr %12, align 4
  %13 = load ptr, ptr %7, align 8
  %14 = load ptr, ptr %8, align 8
  %15 = load ptr, ptr %9, align 8
  %16 = load ptr, ptr %10, align 8
  %17 = load i32, ptr %11, align 4
  %18 = load i32, ptr %12, align 4
  %19 = call noundef i32 @_ZN2cv11normDiffL2_IddEEiPKT_S3_PKhPT0_ii(ptr noundef %13, ptr noundef %14, ptr noundef %15, ptr noundef %16, i32 noundef %17, i32 noundef %18)
  ret i32 %19
}